; Function Attrs: mustprogress uwtable
define noundef zeroext i1 @_ZN6Assimp11SMDImporter10ParseFloatEPKcPS2_S2_Rf(ptr nonnull readnone align 8 captures(none) %0, ptr noundef %1, ptr noundef writeonly captures(none) %2, ptr noundef %3, ptr noundef nonnull align 4 dereferenceable(4) %4) local_unnamed_addr #3 align 2 {
  %6 = ptrtoint ptr %1 to i64
  %7 = ptrtoint ptr %3 to i64
  %8 = sub i64 %7, %6
  %scevgep.i.i = getelementptr i8, ptr %1, i64 %8
  br label %9

9:                                                ; preds = %12, %5
  %.0.i.i = phi ptr [ %1, %5 ], [ %13, %12 ]
  %10 = load i8, ptr %.0.i.i, align 1
  switch i8 %10, label %.critedge.i.i [
    i8 32, label %11
    i8 9, label %11
  ]

11:                                               ; preds = %9, %9
  %.not.i.i = icmp eq ptr %.0.i.i, %3
  br i1 %.not.i.i, label %.critedge.i.ithread-pre-split, label %12

12:                                               ; preds = %11
  %13 = getelementptr inbounds nuw i8, ptr %.0.i.i, i64 1
  br label %9, !llvm.loop !88

.critedge.i.ithread-pre-split:                    ; preds = %11
  %.pr = load i8, ptr %scevgep.i.i, align 1
  br label %.critedge.i.i

.critedge.i.i:                                    ; preds = %9, %.critedge.i.ithread-pre-split
  %14 = phi i8 [ %.pr, %.critedge.i.ithread-pre-split ], [ %10, %9 ]
  %.0.lcssa.i.i = phi ptr [ %scevgep.i.i, %.critedge.i.ithread-pre-split ], [ %.0.i.i, %9 ]
  %15 = icmp ult i8 %14, 14
  br i1 %15, label %switch.hole_check, label %16

16:                                               ; preds = %switch.hole_check, %.critedge.i.i
  %17 = tail call noundef ptr @_ZN6Assimp17fast_atoreal_moveIf17DeadlyImportErrorEEPKcS3_RT_b(ptr noundef nonnull %.0.lcssa.i.i, ptr noundef nonnull align 4 dereferenceable(4) %4, i1 noundef zeroext true)
  store ptr %17, ptr %2, align 8
  br label %_ZN6Assimp10SkipSpacesIcEEbPPKT_S3_.exit

switch.hole_check:                                ; preds = %.critedge.i.i
  %switch.maskindex = zext nneg i8 %14 to i16
  %switch.shifted = lshr i16 13313, %switch.maskindex
  %switch.lobit = trunc i16 %switch.shifted to i1
  br i1 %switch.lobit, label %_ZN6Assimp10SkipSpacesIcEEbPPKT_S3_.exit, label %16

_ZN6Assimp10SkipSpacesIcEEbPPKT_S3_.exit:         ; preds = %switch.hole_check, %16
  %18 = phi i1 [ true, %16 ], [ false, %switch.hole_check ]
  ret i1 %18
}